target datalayout = "e-m:e-p270:32:32-p271:32:32-p272:64:64-i64:64-i128:128-f80:128-n8:16:32:64-S128"
target triple = "x86_64-pc-linux-gnu"

%struct.cpool = type { %struct.Curl_hash, i64, i64, i64, %struct.curltime, %struct.Curl_llist, ptr, ptr, ptr, ptr, i8 }
%struct.Curl_hash = type { ptr, ptr, ptr, ptr, i64, i64 }
%struct.curltime = type { i64, i32 }
%struct.Curl_llist = type { ptr, ptr, ptr, i64 }
%struct.Curl_llist_node = type { ptr, ptr, ptr, ptr }
%struct.easy_pollset = type { [5 x i32], i32, [5 x i8] }
%struct.ssl_primary_config = type { ptr, ptr, ptr, ptr, ptr, ptr, ptr, ptr, ptr, ptr, ptr, ptr, i8, i32, i8, i8 }
%struct.dynbuf = type { ptr, i64, i64, i64 }
%struct.ip_quadruple = type { [46 x i8], [46 x i8], i32, i32 }
%struct.connectdata = type { %struct.Curl_llist_node, ptr, ptr, i64, ptr, i64, ptr, ptr, %struct.hostname, ptr, ptr, %struct.hostname, %struct.proxy_info, %struct.proxy_info, %struct.ip_quadruple, %struct.ip_quadruple, ptr, ptr, ptr, ptr, ptr, %struct.curltime, %struct.curltime, %struct.curltime, [2 x i32], [2 x ptr], [2 x ptr], [2 x ptr], %struct.anon, %struct.easy_pollset, %struct.ssl_primary_config, %struct.ssl_primary_config, %struct.ConnectBits, ptr, ptr, %struct.curltime, i32, i32, %struct.Curl_llist, i32, i32, %struct.ntlmdata, %struct.ntlmdata, %union.anon.1, ptr, i16, i32, i32, i32, i32, i16, i16, i8, i8, i8, i8, i8, i8, i8 }
%struct.hostname = type { ptr, ptr, ptr, ptr }
%struct.proxy_info = type { %struct.hostname, i32, i8, ptr, ptr }
%struct.anon = type { [2 x %struct.curltime], i32 }
%struct.ConnectBits = type { i64 }
%struct.ntlmdata = type { i32, [8 x i8], i32, ptr }
%union.anon.1 = type { %struct.ftp_conn }
%struct.ftp_conn = type { %struct.pingpong, ptr, ptr, ptr, ptr, ptr, ptr, ptr, i8, i64, ptr, i64, i32, i32, i32, i32, i32, i16, i8, i8, i8, i8, i8 }
%struct.pingpong = type { i64, i8, ptr, i64, i64, %struct.curltime, i64, %struct.dynbuf, %struct.dynbuf, i64, i64, ptr, ptr }
%struct.Curl_handler = type { ptr, ptr, ptr, ptr, ptr, ptr, ptr, ptr, ptr, ptr, ptr, ptr, ptr, ptr, ptr, ptr, ptr, i32, i32, i32, i32 }

; Function Attrs: nounwind uwtable
define internal void @cpool_run_conn_shutdown_handler(ptr noundef %0, ptr noundef %1) #0 {
  %3 = alloca ptr, align 8
  %4 = alloca ptr, align 8
  store ptr %0, ptr %3, align 8, !tbaa !97
  store ptr %1, ptr %4, align 8, !tbaa !93
  %5 = load ptr, ptr %4, align 8, !tbaa !93
  %6 = getelementptr inbounds nuw %struct.connectdata, ptr %5, i32 0, i32 32
  %7 = load i64, ptr %6, align 8
  %8 = lshr i64 %7, 30
  %9 = and i64 %8, 1
  %10 = trunc i64 %9 to i32
  %11 = icmp ne i32 %10, 0
  br i1 %11, label %60, label %12

12:                                               ; preds = %2
  %13 = load ptr, ptr %4, align 8, !tbaa !93
  %14 = getelementptr inbounds nuw %struct.connectdata, ptr %13, i32 0, i32 6
  %15 = load ptr, ptr %14, align 8, !tbaa !196
  %16 = icmp ne ptr %15, null
  br i1 %16, label %17, label %21

17:                                               ; preds = %12
  %18 = load ptr, ptr %3, align 8, !tbaa !97
  %19 = load ptr, ptr %4, align 8, !tbaa !93
  %20 = getelementptr inbounds nuw %struct.connectdata, ptr %19, i32 0, i32 6
  call void @Curl_resolv_unlink(ptr noundef %18, ptr noundef %20)
  br label %21

21:                                               ; preds = %17, %12
  %22 = load ptr, ptr %4, align 8, !tbaa !93
  call void @Curl_http_auth_cleanup_ntlm(ptr noundef %22)
  %23 = load ptr, ptr %4, align 8, !tbaa !93
  %24 = getelementptr inbounds nuw %struct.connectdata, ptr %23, i32 0, i32 33
  %25 = load ptr, ptr %24, align 8, !tbaa !197
  %26 = icmp ne ptr %25, null
  br i1 %26, label %27, label %52

27:                                               ; preds = %21
  %28 = load ptr, ptr %4, align 8, !tbaa !93
  %29 = getelementptr inbounds nuw %struct.connectdata, ptr %28, i32 0, i32 33
  %30 = load ptr, ptr %29, align 8, !tbaa !197
  %31 = getelementptr inbounds nuw %struct.Curl_handler, ptr %30, i32 0, i32 12
  %32 = load ptr, ptr %31, align 8, !tbaa !198
  %33 = icmp ne ptr %32, null
  br i1 %33, label %34, label %52

34:                                               ; preds = %27
  br label %35

35:                                               ; preds = %34
  br label %36

36:                                               ; preds = %35
  %37 = load ptr, ptr %4, align 8, !tbaa !93
  %38 = getelementptr inbounds nuw %struct.connectdata, ptr %37, i32 0, i32 33
  %39 = load ptr, ptr %38, align 8, !tbaa !197
  %40 = getelementptr inbounds nuw %struct.Curl_handler, ptr %39, i32 0, i32 12
  %41 = load ptr, ptr %40, align 8, !tbaa !198
  %42 = load ptr, ptr %3, align 8, !tbaa !97
  %43 = load ptr, ptr %4, align 8, !tbaa !93
  %44 = load ptr, ptr %4, align 8, !tbaa !93
  %45 = getelementptr inbounds nuw %struct.connectdata, ptr %44, i32 0, i32 32
  %46 = load i64, ptr %45, align 8
  %47 = lshr i64 %46, 29
  %48 = and i64 %47, 1
  %49 = trunc i64 %48 to i32
  %50 = icmp ne i32 %49, 0
  %51 = call i32 %41(ptr noundef %42, ptr noundef %43, i1 noundef zeroext %50)
  br label %52

52:                                               ; preds = %36, %27, %21
  br label %53

53:                                               ; preds = %52
  br label %54

54:                                               ; preds = %53
  %55 = load ptr, ptr %4, align 8, !tbaa !93
  %56 = getelementptr inbounds nuw %struct.connectdata, ptr %55, i32 0, i32 32
  %57 = load i64, ptr %56, align 8
  %58 = and i64 %57, -1073741825
  %59 = or i64 %58, 1073741824
  store i64 %59, ptr %56, align 8
  br label %60

60:                                               ; preds = %54, %2
  ret void
}

; Function Attrs: nounwind uwtable
define internal void @cpool_close_and_destroy(ptr noundef %0, ptr noundef %1, ptr noundef %2, i1 noundef zeroext %3) #0 {
  %5 = alloca ptr, align 8
  %6 = alloca ptr, align 8
  %7 = alloca ptr, align 8
  %8 = alloca i8, align 1
  %9 = alloca i8, align 1
  store ptr %0, ptr %5, align 8, !tbaa !4
  store ptr %1, ptr %6, align 8, !tbaa !93
  store ptr %2, ptr %7, align 8, !tbaa !97
  %10 = zext i1 %3 to i8
  store i8 %10, ptr %8, align 1, !tbaa !125
  call void @llvm.lifetime.start.p0(i64 1, ptr %9) #6
  br label %11

11:                                               ; preds = %4
  br label %12

12:                                               ; preds = %11
  br label %13

13:                                               ; preds = %12
  br label %14

14:                                               ; preds = %13
  br label %15

15:                                               ; preds = %14
  br label %16

16:                                               ; preds = %15
  br label %17

17:                                               ; preds = %16
  br label %18

18:                                               ; preds = %17
  br label %19

19:                                               ; preds = %18
  %20 = load ptr, ptr %7, align 8, !tbaa !97
  %21 = icmp ne ptr %20, null
  br i1 %21, label %26, label %22

22:                                               ; preds = %19
  %23 = load ptr, ptr %5, align 8, !tbaa !4
  %24 = getelementptr inbounds nuw %struct.cpool, ptr %23, i32 0, i32 6
  %25 = load ptr, ptr %24, align 8, !tbaa !16
  store ptr %25, ptr %7, align 8, !tbaa !97
  br label %26

26:                                               ; preds = %22, %19
  br label %27

27:                                               ; preds = %26
  br label %28

28:                                               ; preds = %27
  br label %29

29:                                               ; preds = %28
  %30 = load ptr, ptr %7, align 8, !tbaa !97
  %31 = load ptr, ptr %6, align 8, !tbaa !93
  call void @Curl_attach_connection(ptr noundef %30, ptr noundef %31)
  %32 = load ptr, ptr %7, align 8, !tbaa !97
  %33 = load ptr, ptr %6, align 8, !tbaa !93
  call void @cpool_run_conn_shutdown_handler(ptr noundef %32, ptr noundef %33)
  %34 = load i8, ptr %8, align 1, !tbaa !125, !range !127, !noundef !128
  %35 = trunc i8 %34 to i1
  br i1 %35, label %36, label %39

36:                                               ; preds = %29
  %37 = load ptr, ptr %7, align 8, !tbaa !97
  %38 = load ptr, ptr %6, align 8, !tbaa !93
  call void @cpool_run_conn_shutdown(ptr noundef %37, ptr noundef %38, ptr noundef %9)
  br label %39

39:                                               ; preds = %36, %29
  %40 = load ptr, ptr %5, align 8, !tbaa !4
  %41 = icmp ne ptr %40, null
  br i1 %41, label %42, label %46

42:                                               ; preds = %39
  br label %43

43:                                               ; preds = %42
  br label %44

44:                                               ; preds = %43
  br label %45

45:                                               ; preds = %44
  br label %50

46:                                               ; preds = %39
  br label %47

47:                                               ; preds = %46
  br label %48

48:                                               ; preds = %47
  br label %49

49:                                               ; preds = %48
  br label %50

50:                                               ; preds = %49, %45
  %51 = load ptr, ptr %7, align 8, !tbaa !97
  call void @Curl_conn_close(ptr noundef %51, i32 noundef 1)
  %52 = load ptr, ptr %7, align 8, !tbaa !97
  call void @Curl_conn_close(ptr noundef %52, i32 noundef 0)
  %53 = load ptr, ptr %7, align 8, !tbaa !97
  call void @Curl_detach_connection(ptr noundef %53)
  %54 = load ptr, ptr %7, align 8, !tbaa !97
  %55 = load ptr, ptr %6, align 8, !tbaa !93
  call void @Curl_conn_free(ptr noundef %54, ptr noundef %55)
  call void @llvm.lifetime.end.p0(i64 1, ptr %9) #6
  ret void
}